(i__main__
LanguageClassifier
p0
(dp1
S'JCfromSP'
p2
(iclassifier
Classifier
p3
(dp4
S'weights'
p5
(lp6
F2.8922910545244687
aF2.2465137832917654
aF-0.6719592825378393
aF-0.4362125486101842
aF-0.7838553964397901
aF0.00798883371234757
aF0.7681528986593985
aF18.95880117234174
aF-7.8482280715740975
aF0.7567817218597804
aF1.3054394408929824
aF4.53534765988726
aF0.4343160927809113
aF-1.3707361794662338
aF-2.034709242378591
aF0.2208857849587481
aF1.2953742945703197
asbsS'SfromP'
p7
(iclassifier
Classifier
p8
(dp9
g5
(lp10
F-5.857509066215293
aF3.9128948020911904
aF-0.41699933424927726
aF0.6631614075295749
aF0.7789852626127025
aF15.514770060689465
aF1.7947941627487007
aF3.031825764437074
aF4.745463699324303
aF-72.43852724545889
aF-5.1413616059368765
aF-2.515219755619109
aF-6.270453275786242
aF-3.5059541239464522
aF-3.2514344330096603
aF22.76312264754582
aF-0.02941759060877233
asbsS'JfromC'
p11
(iclassifier
Classifier
p12
(dp13
g5
(lp14
F-4.534706265626118
aF0.4066786597646681
aF-1.4671020665023469
aF-0.8091466262760567
aF140.5581631447286
aF46.00583733848515
aF-12.451925414862922
aF-65.486549144209
aF-10.218838792089192
aF-62.716966561720355
aF-2.5169134351842004
aF-2.9395409514541657
aF8.782575020582906
aF-17.73931811612436
aF-44.363051715502856
aF84.5154225062498
aF21.92556627653321
asbsb.